; ModuleID = '24/766.c'
source_filename = "24/766.c"
target datalayout = "e-m:e-p270:32:32-p271:32:32-p272:64:64-i64:64-f80:128-n8:16:32:64-S128"
target triple = "x86_64-pc-linux-gnu"

@.str = private unnamed_addr constant [3 x i8] c"%c\00", align 1
@.str.1 = private unnamed_addr constant [2 x i8] c"\0A\00", align 1

; Function Attrs: noinline nounwind uwtable
define dso_local void @main() #0 {
  %1 = alloca [10000 x i8], align 16
  %2 = alloca [10000 x i32], align 16
  %3 = alloca [10000 x i32], align 16
  %4 = alloca i32, align 4
  %5 = alloca i32, align 4
  %6 = alloca i32, align 4
  %7 = alloca i32, align 4
  %8 = alloca i32, align 4
  %9 = alloca i32, align 4
  %10 = alloca i32, align 4
  %11 = alloca i32, align 4
  %12 = alloca i32, align 4
  %13 = alloca i32, align 4
  %14 = bitcast [10000 x i32]* %2 to i8*
  call void @llvm.memset.p0i8.i64(i8* align 16 %14, i8 0, i64 40000, i1 false)
  %15 = bitcast [10000 x i32]* %3 to i8*
  call void @llvm.memset.p0i8.i64(i8* align 16 %15, i8 0, i64 40000, i1 false)
  store i32 1, i32* %5, align 4
  store i32 0, i32* %8, align 4
  store i32 10000, i32* %9, align 4
  %16 = getelementptr inbounds [10000 x i8], [10000 x i8]* %1, i64 0, i64 0
  %17 = call i32 (i8*, ...) bitcast (i32 (...)* @gets to i32 (i8*, ...)*)(i8* %16)
  %18 = getelementptr inbounds [10000 x i8], [10000 x i8]* %1, i64 0, i64 0
  %19 = call i64 @strlen(i8* %18) #4
  %20 = trunc i64 %19 to i32
  store i32 %20, i32* %6, align 4
  %21 = getelementptr inbounds [10000 x i8], [10000 x i8]* %1, i64 0, i64 0
  %22 = load i32, i32* %6, align 4
  %23 = sext i32 %22 to i64
  %24 = getelementptr inbounds i8, i8* %21, i64 %23
  store i8 32, i8* %24, align 1
  %25 = getelementptr inbounds [10000 x i32], [10000 x i32]* %2, i64 0, i64 0
  store i32 -1, i32* %25, align 16
  store i32 0, i32* %4, align 4
  br label %26

26:                                               ; preds = %47, %0
  %27 = load i32, i32* %4, align 4
  %28 = load i32, i32* %6, align 4
  %29 = add nsw i32 %28, 1
  %30 = icmp slt i32 %27, %29
  br i1 %30, label %31, label %50

31:                                               ; preds = %26
  %32 = load i32, i32* %4, align 4
  %33 = sext i32 %32 to i64
  %34 = getelementptr inbounds [10000 x i8], [10000 x i8]* %1, i64 0, i64 %33
  %35 = load i8, i8* %34, align 1
  %36 = sext i8 %35 to i32
  %37 = icmp eq i32 %36, 32
  br i1 %37, label %38, label %46

38:                                               ; preds = %31
  %39 = load i32, i32* %4, align 4
  %40 = getelementptr inbounds [10000 x i32], [10000 x i32]* %2, i64 0, i64 0
  %41 = load i32, i32* %5, align 4
  %42 = sext i32 %41 to i64
  %43 = getelementptr inbounds i32, i32* %40, i64 %42
  store i32 %39, i32* %43, align 4
  %44 = load i32, i32* %5, align 4
  %45 = add nsw i32 %44, 1
  store i32 %45, i32* %5, align 4
  br label %46

46:                                               ; preds = %38, %31
  br label %47

47:                                               ; preds = %46
  %48 = load i32, i32* %4, align 4
  %49 = add nsw i32 %48, 1
  store i32 %49, i32* %4, align 4
  br label %26

50:                                               ; preds = %26
  store i32 0, i32* %4, align 4
  br label %51

51:                                               ; preds = %73, %50
  %52 = load i32, i32* %4, align 4
  %53 = load i32, i32* %5, align 4
  %54 = sub nsw i32 %53, 1
  %55 = icmp slt i32 %52, %54
  br i1 %55, label %56, label %76

56:                                               ; preds = %51
  %57 = getelementptr inbounds [10000 x i32], [10000 x i32]* %2, i64 0, i64 0
  %58 = load i32, i32* %4, align 4
  %59 = sext i32 %58 to i64
  %60 = getelementptr inbounds i32, i32* %57, i64 %59
  %61 = getelementptr inbounds i32, i32* %60, i64 1
  %62 = load i32, i32* %61, align 4
  %63 = getelementptr inbounds [10000 x i32], [10000 x i32]* %2, i64 0, i64 0
  %64 = load i32, i32* %4, align 4
  %65 = sext i32 %64 to i64
  %66 = getelementptr inbounds i32, i32* %63, i64 %65
  %67 = load i32, i32* %66, align 4
  %68 = sub nsw i32 %62, %67
  %69 = getelementptr inbounds [10000 x i32], [10000 x i32]* %3, i64 0, i64 0
  %70 = load i32, i32* %4, align 4
  %71 = sext i32 %70 to i64
  %72 = getelementptr inbounds i32, i32* %69, i64 %71
  store i32 %68, i32* %72, align 4
  br label %73

73:                                               ; preds = %56
  %74 = load i32, i32* %4, align 4
  %75 = add nsw i32 %74, 1
  store i32 %75, i32* %4, align 4
  br label %51

76:                                               ; preds = %51
  %77 = load i32, i32* %5, align 4
  %78 = sub nsw i32 %77, 2
  store i32 %78, i32* %4, align 4
  br label %79

79:                                               ; preds = %113, %76
  %80 = load i32, i32* %4, align 4
  %81 = icmp sgt i32 %80, -1
  br i1 %81, label %82, label %116

82:                                               ; preds = %79
  %83 = load i32, i32* %8, align 4
  %84 = getelementptr inbounds [10000 x i32], [10000 x i32]* %3, i64 0, i64 0
  %85 = load i32, i32* %4, align 4
  %86 = sext i32 %85 to i64
  %87 = getelementptr inbounds i32, i32* %84, i64 %86
  %88 = load i32, i32* %87, align 4
  %89 = icmp sle i32 %83, %88
  br i1 %89, label %90, label %97

90:                                               ; preds = %82
  %91 = getelementptr inbounds [10000 x i32], [10000 x i32]* %3, i64 0, i64 0
  %92 = load i32, i32* %4, align 4
  %93 = sext i32 %92 to i64
  %94 = getelementptr inbounds i32, i32* %91, i64 %93
  %95 = load i32, i32* %94, align 4
  store i32 %95, i32* %8, align 4
  %96 = load i32, i32* %4, align 4
  store i32 %96, i32* %7, align 4
  br label %97

97:                                               ; preds = %90, %82
  %98 = load i32, i32* %9, align 4
  %99 = getelementptr inbounds [10000 x i32], [10000 x i32]* %3, i64 0, i64 0
  %100 = load i32, i32* %4, align 4
  %101 = sext i32 %100 to i64
  %102 = getelementptr inbounds i32, i32* %99, i64 %101
  %103 = load i32, i32* %102, align 4
  %104 = icmp sge i32 %98, %103
  br i1 %104, label %105, label %112

105:                                              ; preds = %97
  %106 = getelementptr inbounds [10000 x i32], [10000 x i32]* %3, i64 0, i64 0
  %107 = load i32, i32* %4, align 4
  %108 = sext i32 %107 to i64
  %109 = getelementptr inbounds i32, i32* %106, i64 %108
  %110 = load i32, i32* %109, align 4
  store i32 %110, i32* %9, align 4
  %111 = load i32, i32* %4, align 4
  store i32 %111, i32* %10, align 4
  br label %112

112:                                              ; preds = %105, %97
  br label %113

113:                                              ; preds = %112
  %114 = load i32, i32* %4, align 4
  %115 = add nsw i32 %114, -1
  store i32 %115, i32* %4, align 4
  br label %79

116:                                              ; preds = %79
  %117 = getelementptr inbounds [10000 x i32], [10000 x i32]* %2, i64 0, i64 0
  %118 = load i32, i32* %7, align 4
  %119 = sext i32 %118 to i64
  %120 = getelementptr inbounds i32, i32* %117, i64 %119
  %121 = getelementptr inbounds i32, i32* %120, i64 1
  %122 = load i32, i32* %121, align 4
  store i32 %122, i32* %12, align 4
  %123 = getelementptr inbounds [10000 x i32], [10000 x i32]* %2, i64 0, i64 0
  %124 = load i32, i32* %7, align 4
  %125 = sext i32 %124 to i64
  %126 = getelementptr inbounds i32, i32* %123, i64 %125
  %127 = load i32, i32* %126, align 4
  store i32 %127, i32* %13, align 4
  %128 = load i32, i32* %13, align 4
  %129 = add nsw i32 %128, 1
  store i32 %129, i32* %6, align 4
  br label %130

130:                                              ; preds = %141, %116
  %131 = load i32, i32* %6, align 4
  %132 = load i32, i32* %12, align 4
  %133 = icmp slt i32 %131, %132
  br i1 %133, label %134, label %144

134:                                              ; preds = %130
  %135 = load i32, i32* %6, align 4
  %136 = sext i32 %135 to i64
  %137 = getelementptr inbounds [10000 x i8], [10000 x i8]* %1, i64 0, i64 %136
  %138 = load i8, i8* %137, align 1
  %139 = sext i8 %138 to i32
  %140 = call i32 (i8*, ...) @printf(i8* getelementptr inbounds ([3 x i8], [3 x i8]* @.str, i64 0, i64 0), i32 %139)
  br label %141

141:                                              ; preds = %134
  %142 = load i32, i32* %6, align 4
  %143 = add nsw i32 %142, 1
  store i32 %143, i32* %6, align 4
  br label %130

144:                                              ; preds = %130
  %145 = call i32 (i8*, ...) @printf(i8* getelementptr inbounds ([2 x i8], [2 x i8]* @.str.1, i64 0, i64 0))
  %146 = getelementptr inbounds [10000 x i32], [10000 x i32]* %2, i64 0, i64 0
  %147 = load i32, i32* %10, align 4
  %148 = sext i32 %147 to i64
  %149 = getelementptr inbounds i32, i32* %146, i64 %148
  %150 = getelementptr inbounds i32, i32* %149, i64 1
  %151 = load i32, i32* %150, align 4
  store i32 %151, i32* %12, align 4
  %152 = getelementptr inbounds [10000 x i32], [10000 x i32]* %2, i64 0, i64 0
  %153 = load i32, i32* %10, align 4
  %154 = sext i32 %153 to i64
  %155 = getelementptr inbounds i32, i32* %152, i64 %154
  %156 = load i32, i32* %155, align 4
  store i32 %156, i32* %13, align 4
  %157 = load i32, i32* %13, align 4
  %158 = add nsw i32 %157, 1
  store i32 %158, i32* %6, align 4
  br label %159

159:                                              ; preds = %171, %144
  %160 = load i32, i32* %6, align 4
  %161 = load i32, i32* %12, align 4
  %162 = icmp slt i32 %160, %161
  br i1 %162, label %163, label %174

163:                                              ; preds = %159
  %164 = getelementptr inbounds [10000 x i8], [10000 x i8]* %1, i64 0, i64 0
  %165 = load i32, i32* %6, align 4
  %166 = sext i32 %165 to i64
  %167 = getelementptr inbounds i8, i8* %164, i64 %166
  %168 = load i8, i8* %167, align 1
  %169 = sext i8 %168 to i32
  %170 = call i32 (i8*, ...) @printf(i8* getelementptr inbounds ([3 x i8], [3 x i8]* @.str, i64 0, i64 0), i32 %169)
  br label %171

171:                                              ; preds = %163
  %172 = load i32, i32* %6, align 4
  %173 = add nsw i32 %172, 1
  store i32 %173, i32* %6, align 4
  br label %159

174:                                              ; preds = %159
  %175 = call i32 (i8*, ...) @printf(i8* getelementptr inbounds ([2 x i8], [2 x i8]* @.str.1, i64 0, i64 0))
  ret void
}

; Function Attrs: argmemonly nounwind willreturn
declare void @llvm.memset.p0i8.i64(i8* nocapture writeonly, i8, i64, i1 immarg) #1

declare dso_local i32 @gets(...) #2

; Function Attrs: nounwind readonly
declare dso_local i64 @strlen(i8*) #3

declare dso_local i32 @printf(i8*, ...) #2


!llvm.module.flags = !{!0}
!llvm.ident = !{!1}

!0 = !{i32 1, !"wchar_size", i32 4}
!1 = !{!"clang version 10.0.0-4ubuntu1 "}
